target datalayout = "e-m:e-p270:32:32-p271:32:32-p272:64:64-i64:64-i128:128-f80:128-n8:16:32:64-S128"
target triple = "x86_64-pc-linux-gnu"

%"class.std::vector" = type { %"struct.std::_Vector_base" }
%"struct.std::_Vector_base" = type { %"struct.std::_Vector_base<long, std::allocator<long>>::_Vector_impl" }
%"struct.std::_Vector_base<long, std::allocator<long>>::_Vector_impl" = type { %"struct.std::_Vector_base<long, std::allocator<long>>::_Vector_impl_data" }
%"struct.std::_Vector_base<long, std::allocator<long>>::_Vector_impl_data" = type { ptr, ptr, ptr }
%"struct.faiss::Index" = type <{ ptr, i32, [4 x i8], i64, i8, i8, [2 x i8], i32, float, [4 x i8] }>
%"struct.faiss::IndexIVF" = type <{ %"struct.faiss::Index.base", [4 x i8], %"struct.faiss::IndexIVFInterface", ptr, i8, [7 x i8], i64, i32, i32, %"struct.faiss::DirectMap", i8, [7 x i8] }>
%"struct.faiss::Index.base" = type <{ ptr, i32, [4 x i8], i64, i8, i8, [2 x i8], i32, float }>
%"struct.faiss::IndexIVFInterface" = type { ptr, %"struct.faiss::Level1Quantizer", i64, i64 }
%"struct.faiss::Level1Quantizer" = type { ptr, i64, i8, i8, [6 x i8], %"struct.faiss::ClusteringParameters", ptr }
%"struct.faiss::ClusteringParameters" = type <{ i32, i32, i8, i8, i8, i8, i8, [3 x i8], i32, i32, i32, [4 x i8], i64, i8, i8, [6 x i8] }>
%"struct.faiss::DirectMap" = type { i32, %"class.std::vector", %"class.std::unordered_map" }
%"class.std::unordered_map" = type { %"class.std::_Hashtable" }
%"class.std::_Hashtable" = type { ptr, i64, %"struct.std::__detail::_Hash_node_base", i64, %"struct.std::__detail::_Prime_rehash_policy", ptr }
%"struct.std::__detail::_Hash_node_base" = type { ptr }
%"struct.std::__detail::_Prime_rehash_policy" = type { float, i64 }

; Function Attrs: mustprogress uwtable
define void @_ZN5faiss8IndexIVF10merge_fromERNS_5IndexEl(ptr noundef nonnull align 8 dereferenceable(265) %0, ptr noundef nonnull align 8 dereferenceable(36) %1, i64 noundef %2) unnamed_addr #0 align 2 {
  %4 = alloca ptr, align 8
  %5 = alloca ptr, align 8
  %6 = alloca i64, align 8
  %7 = alloca ptr, align 8
  store ptr %0, ptr %4, align 8, !tbaa !45
  store ptr %1, ptr %5, align 8, !tbaa !106
  store i64 %2, ptr %6, align 8, !tbaa !9
  %8 = load ptr, ptr %4, align 8
  %9 = load ptr, ptr %5, align 8, !tbaa !106
  %10 = load ptr, ptr %8, align 8, !tbaa !23
  %11 = getelementptr inbounds ptr, ptr %10, i64 21
  %12 = load ptr, ptr %11, align 8
  call void %12(ptr noundef nonnull align 8 dereferenceable(265) %8, ptr noundef nonnull align 8 dereferenceable(36) %9)
  call void @llvm.lifetime.start.p0(i64 8, ptr %7) #20
  %13 = load ptr, ptr %5, align 8, !tbaa !106
  store ptr %13, ptr %7, align 8, !tbaa !45
  %14 = getelementptr inbounds nuw %"struct.faiss::IndexIVF", ptr %8, i32 0, i32 3
  %15 = load ptr, ptr %14, align 8, !tbaa !98
  %16 = load ptr, ptr %7, align 8, !tbaa !45
  %17 = getelementptr inbounds nuw %"struct.faiss::IndexIVF", ptr %16, i32 0, i32 3
  %18 = load ptr, ptr %17, align 8, !tbaa !98
  %19 = load i64, ptr %6, align 8, !tbaa !9
  call void @_ZN5faiss13InvertedLists10merge_fromEPS0_m(ptr noundef nonnull align 8 dereferenceable(25) %15, ptr noundef %18, i64 noundef %19)
  %20 = load ptr, ptr %7, align 8, !tbaa !45
  %21 = getelementptr inbounds nuw %"struct.faiss::Index", ptr %20, i32 0, i32 3
  %22 = load i64, ptr %21, align 8, !tbaa !100
  %23 = getelementptr inbounds nuw %"struct.faiss::Index", ptr %8, i32 0, i32 3
  %24 = load i64, ptr %23, align 8, !tbaa !100
  %25 = add nsw i64 %24, %22
  store i64 %25, ptr %23, align 8, !tbaa !100
  %26 = load ptr, ptr %7, align 8, !tbaa !45
  %27 = getelementptr inbounds nuw %"struct.faiss::Index", ptr %26, i32 0, i32 3
  store i64 0, ptr %27, align 8, !tbaa !100
  call void @llvm.lifetime.end.p0(i64 8, ptr %7) #20
  ret void
}